(lp0
ccopy_reg
_reconstructor
p1
(csts.dataplane_traces.trace
DataplaneEvent
p2
c__builtin__
object
p3
Ntp4
Rp5
(dp6
S'interface'
p7
g1
(csts.entities
HostInterface
p8
g3
Ntp9
Rp10
(dp11
S'hw_addr'
p12
g1
(cpox.lib.addresses
EthAddr
p13
g3
Ntp14
Rp15
(dp16
S'value'
p17
S'\x124Vx\x03\x03'
p18
sbsS'ips'
p19
(lp20
g1
(cpox.lib.addresses
IPAddr
p21
g3
Ntp22
Rp23
(dp24
g17
I33751818
sbasS'name'
p25
S'eth3'
p26
sbsS'packet'
p27
g1
(cpox.lib.packet.ethernet
ethernet
p28
g3
Ntp29
Rp30
(dp31
S'src'
p32
g15
sS'dst'
p33
g1
(g13
g3
Ntp34
Rp35
(dp36
g17
S'\x00\x00\x00\x00\x03\x03'
p37
sbsS'next'
p38
g1
(cpox.lib.packet.ipv4
ipv4
p39
g3
Ntp40
Rp41
(dp42
S'frag'
p43
I0
sS'csum'
p44
I0
sS'dstip'
p45
g1
(g21
g3
Ntp46
Rp47
(dp48
g17
I33751306
sbsS'protocol'
p49
I6
sS'srcip'
p50
g23
sS'tos'
p51
I0
sS'ttl'
p52
I64
sS'iplen'
p53
I20
sg38
g1
(cpox.lib.packet.tcp
tcp
p54
g3
Ntp55
Rp56
(dp57
S'dstport'
p58
I1
sS'off'
p59
I5
sS'seq'
p60
I0
sS'ack'
p61
I0
sS'res'
p62
I0
sS'srcport'
p63
I0
sg38
S''
p64
sS'raw'
p65
NsS'urg'
p66
I0
sS'flags'
p67
I2
sS'win'
p68
I0
sg44
I0
sS'tcplen'
p69
I0
sS'prev'
p70
g41
sS'options'
p71
(lp72
sS'parsed'
p73
I00
sbsg65
Nsg67
I0
sS'hl'
p74
I5
sS'v'
p75
I4
sS'id'
p76
I2846
sg70
g30
sg73
I00
sbsg65
Nsg70
NsS'type'
p77
I2048
sg73
I00
sbsbag1
(g2
g3
Ntp78
Rp79
(dp80
g7
g10
sg27
g1
(g28
g3
Ntp81
Rp82
(dp83
g32
g15
sg33
g35
sg38
g1
(g39
g3
Ntp84
Rp85
(dp86
g43
I0
sg44
I0
sg45
g47
sg49
I6
sg50
g23
sg51
I0
sg52
I64
sg53
I20
sg38
g1
(g54
g3
Ntp87
Rp88
(dp89
g58
I3
sg59
I5
sg60
I0
sg61
I0
sg62
I0
sg63
I2
sg38
g64
sg65
Nsg66
I0
sg67
I2
sg68
I0
sg44
I0
sg69
I0
sg70
g85
sg71
(lp90
sg73
I00
sbsg65
Nsg67
I0
sg74
I5
sg75
I4
sg76
I2847
sg70
g82
sg73
I00
sbsg65
Nsg70
Nsg77
I2048
sg73
I00
sbsbag1
(g2
g3
Ntp91
Rp92
(dp93
g7
g10
sg27
g1
(g28
g3
Ntp94
Rp95
(dp96
g32
g15
sg33
g35
sg38
g1
(g39
g3
Ntp97
Rp98
(dp99
g43
I0
sg44
I0
sg45
g47
sg49
I6
sg50
g23
sg51
I0
sg52
I64
sg53
I20
sg38
g1
(g54
g3
Ntp100
Rp101
(dp102
g58
I5
sg59
I5
sg60
I0
sg61
I0
sg62
I0
sg63
I4
sg38
g64
sg65
Nsg66
I0
sg67
I2
sg68
I0
sg44
I0
sg69
I0
sg70
g98
sg71
(lp103
sg73
I00
sbsg65
Nsg67
I0
sg74
I5
sg75
I4
sg76
I2848
sg70
g95
sg73
I00
sbsg65
Nsg70
Nsg77
I2048
sg73
I00
sbsbag1
(g2
g3
Ntp104
Rp105
(dp106
g7
g10
sg27
g1
(g28
g3
Ntp107
Rp108
(dp109
g32
g15
sg33
g35
sg38
g1
(g39
g3
Ntp110
Rp111
(dp112
g43
I0
sg44
I0
sg45
g47
sg49
I6
sg50
g23
sg51
I0
sg52
I64
sg53
I20
sg38
g1
(g54
g3
Ntp113
Rp114
(dp115
g58
I7
sg59
I5
sg60
I0
sg61
I0
sg62
I0
sg63
I6
sg38
g64
sg65
Nsg66
I0
sg67
I2
sg68
I0
sg44
I0
sg69
I0
sg70
g111
sg71
(lp116
sg73
I00
sbsg65
Nsg67
I0
sg74
I5
sg75
I4
sg76
I2849
sg70
g108
sg73
I00
sbsg65
Nsg70
Nsg77
I2048
sg73
I00
sbsbag1
(g2
g3
Ntp117
Rp118
(dp119
g7
g10
sg27
g1
(g28
g3
Ntp120
Rp121
(dp122
g32
g15
sg33
g35
sg38
g1
(g39
g3
Ntp123
Rp124
(dp125
g43
I0
sg44
I0
sg45
g47
sg49
I6
sg50
g23
sg51
I0
sg52
I64
sg53
I20
sg38
g1
(g54
g3
Ntp126
Rp127
(dp128
g58
I9
sg59
I5
sg60
I0
sg61
I0
sg62
I0
sg63
I8
sg38
g64
sg65
Nsg66
I0
sg67
I2
sg68
I0
sg44
I0
sg69
I0
sg70
g124
sg71
(lp129
sg73
I00
sbsg65
Nsg67
I0
sg74
I5
sg75
I4
sg76
I2850
sg70
g121
sg73
I00
sbsg65
Nsg70
Nsg77
I2048
sg73
I00
sbsbag1
(g2
g3
Ntp130
Rp131
(dp132
g7
g10
sg27
g1
(g28
g3
Ntp133
Rp134
(dp135
g32
g15
sg33
g35
sg38
g1
(g39
g3
Ntp136
Rp137
(dp138
g43
I0
sg44
I0
sg45
g47
sg49
I6
sg50
g23
sg51
I0
sg52
I64
sg53
I20
sg38
g1
(g54
g3
Ntp139
Rp140
(dp141
g58
I11
sg59
I5
sg60
I0
sg61
I0
sg62
I0
sg63
I10
sg38
g64
sg65
Nsg66
I0
sg67
I2
sg68
I0
sg44
I0
sg69
I0
sg70
g137
sg71
(lp142
sg73
I00
sbsg65
Nsg67
I0
sg74
I5
sg75
I4
sg76
I2851
sg70
g134
sg73
I00
sbsg65
Nsg70
Nsg77
I2048
sg73
I00
sbsbag1
(g2
g3
Ntp143
Rp144
(dp145
g7
g10
sg27
g1
(g28
g3
Ntp146
Rp147
(dp148
g32
g15
sg33
g35
sg38
g1
(g39
g3
Ntp149
Rp150
(dp151
g43
I0
sg44
I0
sg45
g47
sg49
I6
sg50
g23
sg51
I0
sg52
I64
sg53
I20
sg38
g1
(g54
g3
Ntp152
Rp153
(dp154
g58
I13
sg59
I5
sg60
I0
sg61
I0
sg62
I0
sg63
I12
sg38
g64
sg65
Nsg66
I0
sg67
I2
sg68
I0
sg44
I0
sg69
I0
sg70
g150
sg71
(lp155
sg73
I00
sbsg65
Nsg67
I0
sg74
I5
sg75
I4
sg76
I2852
sg70
g147
sg73
I00
sbsg65
Nsg70
Nsg77
I2048
sg73
I00
sbsbag1
(g2
g3
Ntp156
Rp157
(dp158
g7
g10
sg27
g1
(g28
g3
Ntp159
Rp160
(dp161
g32
g15
sg33
g35
sg38
g1
(g39
g3
Ntp162
Rp163
(dp164
g43
I0
sg44
I0
sg45
g47
sg49
I6
sg50
g23
sg51
I0
sg52
I64
sg53
I20
sg38
g1
(g54
g3
Ntp165
Rp166
(dp167
g58
I15
sg59
I5
sg60
I0
sg61
I0
sg62
I0
sg63
I14
sg38
g64
sg65
Nsg66
I0
sg67
I2
sg68
I0
sg44
I0
sg69
I0
sg70
g163
sg71
(lp168
sg73
I00
sbsg65
Nsg67
I0
sg74
I5
sg75
I4
sg76
I2853
sg70
g160
sg73
I00
sbsg65
Nsg70
Nsg77
I2048
sg73
I00
sbsbag1
(g2
g3
Ntp169
Rp170
(dp171
g7
g10
sg27
g1
(g28
g3
Ntp172
Rp173
(dp174
g32
g15
sg33
g35
sg38
g1
(g39
g3
Ntp175
Rp176
(dp177
g43
I0
sg44
I0
sg45
g47
sg49
I6
sg50
g23
sg51
I0
sg52
I64
sg53
I20
sg38
g1
(g54
g3
Ntp178
Rp179
(dp180
g58
I17
sg59
I5
sg60
I0
sg61
I0
sg62
I0
sg63
I16
sg38
g64
sg65
Nsg66
I0
sg67
I2
sg68
I0
sg44
I0
sg69
I0
sg70
g176
sg71
(lp181
sg73
I00
sbsg65
Nsg67
I0
sg74
I5
sg75
I4
sg76
I2854
sg70
g173
sg73
I00
sbsg65
Nsg70
Nsg77
I2048
sg73
I00
sbsbag1
(g2
g3
Ntp182
Rp183
(dp184
g7
g10
sg27
g1
(g28
g3
Ntp185
Rp186
(dp187
g32
g15
sg33
g35
sg38
g1
(g39
g3
Ntp188
Rp189
(dp190
g43
I0
sg44
I0
sg45
g47
sg49
I6
sg50
g23
sg51
I0
sg52
I64
sg53
I20
sg38
g1
(g54
g3
Ntp191
Rp192
(dp193
g58
I19
sg59
I5
sg60
I0
sg61
I0
sg62
I0
sg63
I18
sg38
g64
sg65
Nsg66
I0
sg67
I2
sg68
I0
sg44
I0
sg69
I0
sg70
g189
sg71
(lp194
sg73
I00
sbsg65
Nsg67
I0
sg74
I5
sg75
I4
sg76
I2855
sg70
g186
sg73
I00
sbsg65
Nsg70
Nsg77
I2048
sg73
I00
sbsbag1
(g2
g3
Ntp195
Rp196
(dp197
g7
g10
sg27
g1
(g28
g3
Ntp198
Rp199
(dp200
g32
g15
sg33
g35
sg38
g1
(g39
g3
Ntp201
Rp202
(dp203
g43
I0
sg44
I0
sg45
g47
sg49
I6
sg50
g23
sg51
I0
sg52
I64
sg53
I20
sg38
g1
(g54
g3
Ntp204
Rp205
(dp206
g58
I21
sg59
I5
sg60
I0
sg61
I0
sg62
I0
sg63
I20
sg38
g64
sg65
Nsg66
I0
sg67
I2
sg68
I0
sg44
I0
sg69
I0
sg70
g202
sg71
(lp207
sg73
I00
sbsg65
Nsg67
I0
sg74
I5
sg75
I4
sg76
I2856
sg70
g199
sg73
I00
sbsg65
Nsg70
Nsg77
I2048
sg73
I00
sbsbag1
(g2
g3
Ntp208
Rp209
(dp210
g7
g10
sg27
g1
(g28
g3
Ntp211
Rp212
(dp213
g32
g15
sg33
g35
sg38
g1
(g39
g3
Ntp214
Rp215
(dp216
g43
I0
sg44
I0
sg45
g47
sg49
I6
sg50
g23
sg51
I0
sg52
I64
sg53
I20
sg38
g1
(g54
g3
Ntp217
Rp218
(dp219
g58
I23
sg59
I5
sg60
I0
sg61
I0
sg62
I0
sg63
I22
sg38
g64
sg65
Nsg66
I0
sg67
I2
sg68
I0
sg44
I0
sg69
I0
sg70
g215
sg71
(lp220
sg73
I00
sbsg65
Nsg67
I0
sg74
I5
sg75
I4
sg76
I2857
sg70
g212
sg73
I00
sbsg65
Nsg70
Nsg77
I2048
sg73
I00
sbsbag1
(g2
g3
Ntp221
Rp222
(dp223
g7
g10
sg27
g1
(g28
g3
Ntp224
Rp225
(dp226
g32
g15
sg33
g35
sg38
g1
(g39
g3
Ntp227
Rp228
(dp229
g43
I0
sg44
I0
sg45
g47
sg49
I6
sg50
g23
sg51
I0
sg52
I64
sg53
I20
sg38
g1
(g54
g3
Ntp230
Rp231
(dp232
g58
I25
sg59
I5
sg60
I0
sg61
I0
sg62
I0
sg63
I24
sg38
g64
sg65
Nsg66
I0
sg67
I2
sg68
I0
sg44
I0
sg69
I0
sg70
g228
sg71
(lp233
sg73
I00
sbsg65
Nsg67
I0
sg74
I5
sg75
I4
sg76
I2858
sg70
g225
sg73
I00
sbsg65
Nsg70
Nsg77
I2048
sg73
I00
sbsbag1
(g2
g3
Ntp234
Rp235
(dp236
g7
g10
sg27
g1
(g28
g3
Ntp237
Rp238
(dp239
g32
g15
sg33
g35
sg38
g1
(g39
g3
Ntp240
Rp241
(dp242
g43
I0
sg44
I0
sg45
g47
sg49
I6
sg50
g23
sg51
I0
sg52
I64
sg53
I20
sg38
g1
(g54
g3
Ntp243
Rp244
(dp245
g58
I27
sg59
I5
sg60
I0
sg61
I0
sg62
I0
sg63
I26
sg38
g64
sg65
Nsg66
I0
sg67
I2
sg68
I0
sg44
I0
sg69
I0
sg70
g241
sg71
(lp246
sg73
I00
sbsg65
Nsg67
I0
sg74
I5
sg75
I4
sg76
I2859
sg70
g238
sg73
I00
sbsg65
Nsg70
Nsg77
I2048
sg73
I00
sbsbag1
(g2
g3
Ntp247
Rp248
(dp249
g7
g10
sg27
g1
(g28
g3
Ntp250
Rp251
(dp252
g32
g15
sg33
g35
sg38
g1
(g39
g3
Ntp253
Rp254
(dp255
g43
I0
sg44
I0
sg45
g47
sg49
I6
sg50
g23
sg51
I0
sg52
I64
sg53
I20
sg38
g1
(g54
g3
Ntp256
Rp257
(dp258
g58
I29
sg59
I5
sg60
I0
sg61
I0
sg62
I0
sg63
I28
sg38
g64
sg65
Nsg66
I0
sg67
I2
sg68
I0
sg44
I0
sg69
I0
sg70
g254
sg71
(lp259
sg73
I00
sbsg65
Nsg67
I0
sg74
I5
sg75
I4
sg76
I2860
sg70
g251
sg73
I00
sbsg65
Nsg70
Nsg77
I2048
sg73
I00
sbsbag1
(g2
g3
Ntp260
Rp261
(dp262
g7
g10
sg27
g1
(g28
g3
Ntp263
Rp264
(dp265
g32
g15
sg33
g35
sg38
g1
(g39
g3
Ntp266
Rp267
(dp268
g43
I0
sg44
I0
sg45
g47
sg49
I6
sg50
g23
sg51
I0
sg52
I64
sg53
I20
sg38
g1
(g54
g3
Ntp269
Rp270
(dp271
g58
I31
sg59
I5
sg60
I0
sg61
I0
sg62
I0
sg63
I30
sg38
g64
sg65
Nsg66
I0
sg67
I2
sg68
I0
sg44
I0
sg69
I0
sg70
g267
sg71
(lp272
sg73
I00
sbsg65
Nsg67
I0
sg74
I5
sg75
I4
sg76
I2861
sg70
g264
sg73
I00
sbsg65
Nsg70
Nsg77
I2048
sg73
I00
sbsbag1
(g2
g3
Ntp273
Rp274
(dp275
g7
g10
sg27
g1
(g28
g3
Ntp276
Rp277
(dp278
g32
g15
sg33
g35
sg38
g1
(g39
g3
Ntp279
Rp280
(dp281
g43
I0
sg44
I0
sg45
g47
sg49
I6
sg50
g23
sg51
I0
sg52
I64
sg53
I20
sg38
g1
(g54
g3
Ntp282
Rp283
(dp284
g58
I33
sg59
I5
sg60
I0
sg61
I0
sg62
I0
sg63
I32
sg38
g64
sg65
Nsg66
I0
sg67
I2
sg68
I0
sg44
I0
sg69
I0
sg70
g280
sg71
(lp285
sg73
I00
sbsg65
Nsg67
I0
sg74
I5
sg75
I4
sg76
I2862
sg70
g277
sg73
I00
sbsg65
Nsg70
Nsg77
I2048
sg73
I00
sbsbag1
(g2
g3
Ntp286
Rp287
(dp288
g7
g10
sg27
g1
(g28
g3
Ntp289
Rp290
(dp291
g32
g15
sg33
g35
sg38
g1
(g39
g3
Ntp292
Rp293
(dp294
g43
I0
sg44
I0
sg45
g47
sg49
I6
sg50
g23
sg51
I0
sg52
I64
sg53
I20
sg38
g1
(g54
g3
Ntp295
Rp296
(dp297
g58
I35
sg59
I5
sg60
I0
sg61
I0
sg62
I0
sg63
I34
sg38
g64
sg65
Nsg66
I0
sg67
I2
sg68
I0
sg44
I0
sg69
I0
sg70
g293
sg71
(lp298
sg73
I00
sbsg65
Nsg67
I0
sg74
I5
sg75
I4
sg76
I2863
sg70
g290
sg73
I00
sbsg65
Nsg70
Nsg77
I2048
sg73
I00
sbsbag1
(g2
g3
Ntp299
Rp300
(dp301
g7
g10
sg27
g1
(g28
g3
Ntp302
Rp303
(dp304
g32
g15
sg33
g35
sg38
g1
(g39
g3
Ntp305
Rp306
(dp307
g43
I0
sg44
I0
sg45
g47
sg49
I6
sg50
g23
sg51
I0
sg52
I64
sg53
I20
sg38
g1
(g54
g3
Ntp308
Rp309
(dp310
g58
I37
sg59
I5
sg60
I0
sg61
I0
sg62
I0
sg63
I36
sg38
g64
sg65
Nsg66
I0
sg67
I2
sg68
I0
sg44
I0
sg69
I0
sg70
g306
sg71
(lp311
sg73
I00
sbsg65
Nsg67
I0
sg74
I5
sg75
I4
sg76
I2864
sg70
g303
sg73
I00
sbsg65
Nsg70
Nsg77
I2048
sg73
I00
sbsbag1
(g2
g3
Ntp312
Rp313
(dp314
g7
g10
sg27
g1
(g28
g3
Ntp315
Rp316
(dp317
g32
g15
sg33
g35
sg38
g1
(g39
g3
Ntp318
Rp319
(dp320
g43
I0
sg44
I0
sg45
g47
sg49
I6
sg50
g23
sg51
I0
sg52
I64
sg53
I20
sg38
g1
(g54
g3
Ntp321
Rp322
(dp323
g58
I39
sg59
I5
sg60
I0
sg61
I0
sg62
I0
sg63
I38
sg38
g64
sg65
Nsg66
I0
sg67
I2
sg68
I0
sg44
I0
sg69
I0
sg70
g319
sg71
(lp324
sg73
I00
sbsg65
Nsg67
I0
sg74
I5
sg75
I4
sg76
I2865
sg70
g316
sg73
I00
sbsg65
Nsg70
Nsg77
I2048
sg73
I00
sbsbag1
(g2
g3
Ntp325
Rp326
(dp327
g7
g10
sg27
g1
(g28
g3
Ntp328
Rp329
(dp330
g32
g15
sg33
g35
sg38
g1
(g39
g3
Ntp331
Rp332
(dp333
g43
I0
sg44
I0
sg45
g47
sg49
I6
sg50
g23
sg51
I0
sg52
I64
sg53
I20
sg38
g1
(g54
g3
Ntp334
Rp335
(dp336
g58
I41
sg59
I5
sg60
I0
sg61
I0
sg62
I0
sg63
I40
sg38
g64
sg65
Nsg66
I0
sg67
I2
sg68
I0
sg44
I0
sg69
I0
sg70
g332
sg71
(lp337
sg73
I00
sbsg65
Nsg67
I0
sg74
I5
sg75
I4
sg76
I2866
sg70
g329
sg73
I00
sbsg65
Nsg70
Nsg77
I2048
sg73
I00
sbsbag1
(g2
g3
Ntp338
Rp339
(dp340
g7
g10
sg27
g1
(g28
g3
Ntp341
Rp342
(dp343
g32
g15
sg33
g35
sg38
g1
(g39
g3
Ntp344
Rp345
(dp346
g43
I0
sg44
I0
sg45
g47
sg49
I6
sg50
g23
sg51
I0
sg52
I64
sg53
I20
sg38
g1
(g54
g3
Ntp347
Rp348
(dp349
g58
I43
sg59
I5
sg60
I0
sg61
I0
sg62
I0
sg63
I42
sg38
g64
sg65
Nsg66
I0
sg67
I2
sg68
I0
sg44
I0
sg69
I0
sg70
g345
sg71
(lp350
sg73
I00
sbsg65
Nsg67
I0
sg74
I5
sg75
I4
sg76
I2867
sg70
g342
sg73
I00
sbsg65
Nsg70
Nsg77
I2048
sg73
I00
sbsbag1
(g2
g3
Ntp351
Rp352
(dp353
g7
g10
sg27
g1
(g28
g3
Ntp354
Rp355
(dp356
g32
g15
sg33
g35
sg38
g1
(g39
g3
Ntp357
Rp358
(dp359
g43
I0
sg44
I0
sg45
g47
sg49
I6
sg50
g23
sg51
I0
sg52
I64
sg53
I20
sg38
g1
(g54
g3
Ntp360
Rp361
(dp362
g58
I45
sg59
I5
sg60
I0
sg61
I0
sg62
I0
sg63
I44
sg38
g64
sg65
Nsg66
I0
sg67
I2
sg68
I0
sg44
I0
sg69
I0
sg70
g358
sg71
(lp363
sg73
I00
sbsg65
Nsg67
I0
sg74
I5
sg75
I4
sg76
I2868
sg70
g355
sg73
I00
sbsg65
Nsg70
Nsg77
I2048
sg73
I00
sbsbag1
(g2
g3
Ntp364
Rp365
(dp366
g7
g10
sg27
g1
(g28
g3
Ntp367
Rp368
(dp369
g32
g15
sg33
g35
sg38
g1
(g39
g3
Ntp370
Rp371
(dp372
g43
I0
sg44
I0
sg45
g47
sg49
I6
sg50
g23
sg51
I0
sg52
I64
sg53
I20
sg38
g1
(g54
g3
Ntp373
Rp374
(dp375
g58
I47
sg59
I5
sg60
I0
sg61
I0
sg62
I0
sg63
I46
sg38
g64
sg65
Nsg66
I0
sg67
I2
sg68
I0
sg44
I0
sg69
I0
sg70
g371
sg71
(lp376
sg73
I00
sbsg65
Nsg67
I0
sg74
I5
sg75
I4
sg76
I2869
sg70
g368
sg73
I00
sbsg65
Nsg70
Nsg77
I2048
sg73
I00
sbsbag1
(g2
g3
Ntp377
Rp378
(dp379
g7
g10
sg27
g1
(g28
g3
Ntp380
Rp381
(dp382
g32
g15
sg33
g35
sg38
g1
(g39
g3
Ntp383
Rp384
(dp385
g43
I0
sg44
I0
sg45
g47
sg49
I6
sg50
g23
sg51
I0
sg52
I64
sg53
I20
sg38
g1
(g54
g3
Ntp386
Rp387
(dp388
g58
I49
sg59
I5
sg60
I0
sg61
I0
sg62
I0
sg63
I48
sg38
g64
sg65
Nsg66
I0
sg67
I2
sg68
I0
sg44
I0
sg69
I0
sg70
g384
sg71
(lp389
sg73
I00
sbsg65
Nsg67
I0
sg74
I5
sg75
I4
sg76
I2870
sg70
g381
sg73
I00
sbsg65
Nsg70
Nsg77
I2048
sg73
I00
sbsbag1
(g2
g3
Ntp390
Rp391
(dp392
g7
g10
sg27
g1
(g28
g3
Ntp393
Rp394
(dp395
g32
g15
sg33
g35
sg38
g1
(g39
g3
Ntp396
Rp397
(dp398
g43
I0
sg44
I0
sg45
g47
sg49
I6
sg50
g23
sg51
I0
sg52
I64
sg53
I20
sg38
g1
(g54
g3
Ntp399
Rp400
(dp401
g58
I51
sg59
I5
sg60
I0
sg61
I0
sg62
I0
sg63
I50
sg38
g64
sg65
Nsg66
I0
sg67
I2
sg68
I0
sg44
I0
sg69
I0
sg70
g397
sg71
(lp402
sg73
I00
sbsg65
Nsg67
I0
sg74
I5
sg75
I4
sg76
I2871
sg70
g394
sg73
I00
sbsg65
Nsg70
Nsg77
I2048
sg73
I00
sbsbag1
(g2
g3
Ntp403
Rp404
(dp405
g7
g10
sg27
g1
(g28
g3
Ntp406
Rp407
(dp408
g32
g15
sg33
g35
sg38
g1
(g39
g3
Ntp409
Rp410
(dp411
g43
I0
sg44
I0
sg45
g47
sg49
I6
sg50
g23
sg51
I0
sg52
I64
sg53
I20
sg38
g1
(g54
g3
Ntp412
Rp413
(dp414
g58
I53
sg59
I5
sg60
I0
sg61
I0
sg62
I0
sg63
I52
sg38
g64
sg65
Nsg66
I0
sg67
I2
sg68
I0
sg44
I0
sg69
I0
sg70
g410
sg71
(lp415
sg73
I00
sbsg65
Nsg67
I0
sg74
I5
sg75
I4
sg76
I2872
sg70
g407
sg73
I00
sbsg65
Nsg70
Nsg77
I2048
sg73
I00
sbsbag1
(g2
g3
Ntp416
Rp417
(dp418
g7
g10
sg27
g1
(g28
g3
Ntp419
Rp420
(dp421
g32
g15
sg33
g35
sg38
g1
(g39
g3
Ntp422
Rp423
(dp424
g43
I0
sg44
I0
sg45
g47
sg49
I6
sg50
g23
sg51
I0
sg52
I64
sg53
I20
sg38
g1
(g54
g3
Ntp425
Rp426
(dp427
g58
I55
sg59
I5
sg60
I0
sg61
I0
sg62
I0
sg63
I54
sg38
g64
sg65
Nsg66
I0
sg67
I2
sg68
I0
sg44
I0
sg69
I0
sg70
g423
sg71
(lp428
sg73
I00
sbsg65
Nsg67
I0
sg74
I5
sg75
I4
sg76
I2873
sg70
g420
sg73
I00
sbsg65
Nsg70
Nsg77
I2048
sg73
I00
sbsbag1
(g2
g3
Ntp429
Rp430
(dp431
g7
g10
sg27
g1
(g28
g3
Ntp432
Rp433
(dp434
g32
g15
sg33
g35
sg38
g1
(g39
g3
Ntp435
Rp436
(dp437
g43
I0
sg44
I0
sg45
g47
sg49
I6
sg50
g23
sg51
I0
sg52
I64
sg53
I20
sg38
g1
(g54
g3
Ntp438
Rp439
(dp440
g58
I57
sg59
I5
sg60
I0
sg61
I0
sg62
I0
sg63
I56
sg38
g64
sg65
Nsg66
I0
sg67
I2
sg68
I0
sg44
I0
sg69
I0
sg70
g436
sg71
(lp441
sg73
I00
sbsg65
Nsg67
I0
sg74
I5
sg75
I4
sg76
I2874
sg70
g433
sg73
I00
sbsg65
Nsg70
Nsg77
I2048
sg73
I00
sbsbag1
(g2
g3
Ntp442
Rp443
(dp444
g7
g10
sg27
g1
(g28
g3
Ntp445
Rp446
(dp447
g32
g15
sg33
g35
sg38
g1
(g39
g3
Ntp448
Rp449
(dp450
g43
I0
sg44
I0
sg45
g47
sg49
I6
sg50
g23
sg51
I0
sg52
I64
sg53
I20
sg38
g1
(g54
g3
Ntp451
Rp452
(dp453
g58
I59
sg59
I5
sg60
I0
sg61
I0
sg62
I0
sg63
I58
sg38
g64
sg65
Nsg66
I0
sg67
I2
sg68
I0
sg44
I0
sg69
I0
sg70
g449
sg71
(lp454
sg73
I00
sbsg65
Nsg67
I0
sg74
I5
sg75
I4
sg76
I2875
sg70
g446
sg73
I00
sbsg65
Nsg70
Nsg77
I2048
sg73
I00
sbsba.