(lp0
ccopy_reg
_reconstructor
p1
(csts.dataplane_traces.trace
DataplaneEvent
p2
c__builtin__
object
p3
Ntp4
Rp5
(dp6
S'interface'
p7
g1
(csts.entities
HostInterface
p8
g3
Ntp9
Rp10
(dp11
S'hw_addr'
p12
g1
(cpox.lib.addresses
EthAddr
p13
g3
Ntp14
Rp15
(dp16
S'value'
p17
S'\x124Vx\x04\x04'
p18
sbsS'ips'
p19
(lp20
g1
(cpox.lib.addresses
IPAddr
p21
g3
Ntp22
Rp23
(dp24
g17
I67402619
sbasS'name'
p25
S'eth4'
p26
sbsS'packet'
p27
g1
(cpox.lib.packet.ethernet
ethernet
p28
g3
Ntp29
Rp30
(dp31
S'src'
p32
g15
sS'dst'
p33
g1
(g13
g3
Ntp34
Rp35
(dp36
g17
S'\x124Vx\x01\x04'
p37
sbsS'next'
p38
g1
(cpox.lib.packet.ipv4
ipv4
p39
g3
Ntp40
Rp41
(dp42
S'frag'
p43
I0
sS'csum'
p44
I0
sS'dstip'
p45
g1
(g21
g3
Ntp46
Rp47
(dp48
g17
I67206011
sbsS'protocol'
p49
I1
sS'srcip'
p50
g23
sS'tos'
p51
I0
sS'ttl'
p52
I64
sS'iplen'
p53
I20
sg38
g1
(cpox.lib.packet.icmp
icmp
p54
g3
Ntp55
Rp56
(dp57
S'code'
p58
I0
sg44
I0
sS'prev'
p59
g41
sS'type'
p60
I8
sg38
S'ping'
p61
sbsS'raw'
p62
NsS'flags'
p63
I0
sS'hl'
p64
I5
sS'v'
p65
I4
sS'id'
p66
I4381
sg59
g30
sS'parsed'
p67
I00
sbsg62
Nsg59
Nsg60
I2048
sg67
I00
sbsbag1
(g2
g3
Ntp68
Rp69
(dp70
g7
g1
(g8
g3
Ntp71
Rp72
(dp73
g12
g1
(g13
g3
Ntp74
Rp75
(dp76
g17
S'\x124Vx\x03\x04'
p77
sbsg19
(lp78
g1
(g21
g3
Ntp79
Rp80
(dp81
g17
I67337083
sbasg25
S'eth3'
p82
sbsg27
g1
(g28
g3
Ntp83
Rp84
(dp85
g32
g75
sg33
g35
sg38
g1
(g39
g3
Ntp86
Rp87
(dp88
g43
I0
sg44
I0
sg45
g47
sg49
I1
sg50
g80
sg51
I0
sg52
I64
sg53
I20
sg38
g1
(g54
g3
Ntp89
Rp90
(dp91
g58
I0
sg44
I0
sg59
g87
sg60
I8
sg38
g61
sbsg62
Nsg63
I0
sg64
I5
sg65
I4
sg66
I4382
sg59
g84
sg67
I00
sbsg62
Nsg59
Nsg60
I2048
sg67
I00
sbsbag5
ag69
ag5
ag69
ag5
ag69
ag5
ag69
ag5
ag69
ag5
ag69
ag5
ag69
ag5
ag69
ag5
ag69
ag5
ag69
ag5
ag69
ag5
ag69
ag5
ag69
ag5
ag69
ag5
ag69
ag5
ag69
ag5
ag69
ag5
ag69
ag5
ag69
ag5
ag69
ag5
ag69
ag5
ag69
ag5
ag69
ag5
ag69
ag5
ag69
ag5
ag69
ag5
ag69
ag5
ag69
ag5
ag69
ag5
ag69
ag5
ag69
ag5
ag69
ag5
ag69
ag5
ag69
ag5
ag69
ag5
ag69
ag5
ag69
ag5
ag69
ag5
ag69
a.