(lp0
ccopy_reg
_reconstructor
p1
(csts.dataplane_traces.trace
DataplaneEvent
p2
c__builtin__
object
p3
Ntp4
Rp5
(dp6
S'interface'
p7
g1
(csts.entities
HostInterface
p8
g3
Ntp9
Rp10
(dp11
S'hw_addr'
p12
g1
(cpox.lib.addresses
EthAddr
p13
g3
Ntp14
Rp15
(dp16
S'value'
p17
S'\x124Vx\x02\x02'
p18
sbsS'ips'
p19
(lp20
g1
(cpox.lib.addresses
IPAddr
p21
g3
Ntp22
Rp23
(dp24
g17
I33717115
sbasS'name'
p25
S'eth2'
p26
sbsS'packet'
p27
g1
(cpox.lib.packet.ethernet
ethernet
p28
g3
Ntp29
Rp30
(dp31
S'src'
p32
g15
sS'dst'
p33
g1
(g13
g3
Ntp34
Rp35
(dp36
g17
S'\xff\xff\xff\xff\xff\xff'
p37
sbsS'next'
p38
g1
(cpox.lib.packet.arp
arp
p39
g3
Ntp40
Rp41
(dp42
S'prev'
p43
g30
sS'hwtype'
p44
I1
sS'hwdst'
p45
g1
(g13
g3
Ntp46
Rp47
(dp48
g17
S'\x00\x00\x00\x00\x00\x00'
p49
sbsS'protosrc'
p50
g23
sg38
S''
p51
sS'raw'
p52
NsS'protodst'
p53
g1
(g21
g3
Ntp54
Rp55
(dp56
g17
I33651579
sbsS'opcode'
p57
I1
sS'protolen'
p58
I4
sS'hwlen'
p59
I6
sS'prototype'
p60
I2048
sS'parsed'
p61
I00
sS'hwsrc'
p62
g15
sbsg52
Nsg43
NsS'type'
p63
I2054
sg61
I00
sbsbag1
(g2
g3
Ntp64
Rp65
(dp66
g7
g1
(g8
g3
Ntp67
Rp68
(dp69
g12
g1
(g13
g3
Ntp70
Rp71
(dp72
g17
S'\x124Vx\x01\x02'
p73
sbsg19
(lp74
g55
asg25
S'eth1'
p75
sbsg27
g1
(g28
g3
Ntp76
Rp77
(dp78
g32
g71
sg33
g15
sg38
g1
(g39
g3
Ntp79
Rp80
(dp81
g43
g77
sg44
I1
sg45
g15
sg50
g55
sg38
g51
sg52
Nsg53
g23
sg57
I2
sg58
I4
sg59
I6
sg60
I2048
sg61
I00
sg62
g71
sbsg52
Nsg43
Nsg63
I2054
sg61
I00
sbsbag1
(g2
g3
Ntp82
Rp83
(dp84
g7
g10
sg27
g1
(g28
g3
Ntp85
Rp86
(dp87
g32
g15
sg33
g71
sg38
g1
(cpox.lib.packet.ipv4
ipv4
p88
g3
Ntp89
Rp90
(dp91
S'frag'
p92
I0
sS'csum'
p93
I0
sS'dstip'
p94
g55
sS'protocol'
p95
I1
sS'srcip'
p96
g23
sS'tos'
p97
I0
sS'ttl'
p98
I64
sS'iplen'
p99
I20
sg38
g1
(cpox.lib.packet.icmp
icmp
p100
g3
Ntp101
Rp102
(dp103
S'code'
p104
I0
sg93
I0
sg43
g90
sg63
I8
sg38
S'ping'
p105
sbsg52
NsS'flags'
p106
I0
sS'hl'
p107
I5
sS'v'
p108
I4
sS'id'
p109
I8488
sg43
g86
sg61
I00
sbsg52
Nsg43
Nsg63
I2048
sg61
I00
sbsbag1
(g2
g3
Ntp110
Rp111
(dp112
g7
g68
sg27
g1
(g28
g3
Ntp113
Rp114
(dp115
g32
g71
sg33
g15
sg38
g1
(g88
g3
Ntp116
Rp117
(dp118
g92
I0
sg93
I0
sg94
g23
sg95
I1
sg96
g55
sg97
I0
sg98
I64
sg99
I20
sg38
g1
(g100
g3
Ntp119
Rp120
(dp121
g104
I0
sg93
I0
sg43
g117
sg63
I0
sg38
S'pong'
p122
sbsg52
Nsg106
I0
sg107
I5
sg108
I4
sg109
I8489
sg43
g114
sg61
I00
sbsg52
Nsg43
Nsg63
I2048
sg61
I00
sbsbag5
ag65
ag83
ag111
ag5
ag65
ag83
ag111
ag5
ag65
ag83
ag111
ag5
ag65
ag83
ag111
ag5
ag65
ag83
ag111
ag5
ag65
ag83
ag111
ag5
ag65
ag83
ag111
ag5
ag65
ag83
ag111
ag5
ag65
ag83
ag111
ag5
ag65
ag83
ag111
ag5
ag65
ag83
ag111
ag5
ag65
ag83
ag111
ag5
ag65
ag83
ag111
ag5
ag65
ag83
ag111
ag5
ag65
ag83
ag111
ag5
ag65
ag83
ag111
ag5
ag65
ag83
ag111
ag5
ag65
ag83
ag111
ag5
ag65
ag83
ag111
ag5
ag65
ag83
ag111
ag5
ag65
ag83
ag111
ag5
ag65
ag83
ag111
ag5
ag65
ag83
ag111
ag5
ag65
ag83
ag111
ag5
ag65
ag83
ag111
ag5
ag65
ag83
ag111
ag5
ag65
ag83
ag111
ag5
ag65
ag83
ag111
ag5
ag65
ag83
ag111
ag5
ag65
ag83
ag111
ag5
ag65
ag83
ag111
ag5
ag65
ag83
ag111
ag5
ag65
ag83
ag111
ag5
ag65
ag83
ag111
ag5
ag65
ag83
ag111
ag5
ag65
ag83
ag111
ag5
ag65
ag83
ag111
ag5
ag65
ag83
ag111
ag5
ag65
ag83
ag111
a.