(lp0
ccopy_reg
_reconstructor
p1
(csts.dataplane_traces.trace
DataplaneEvent
p2
c__builtin__
object
p3
Ntp4
Rp5
(dp6
S'interface'
p7
g1
(csts.entities
HostInterface
p8
g3
Ntp9
Rp10
(dp11
S'hw_addr'
p12
g1
(cpox.lib.addresses
EthAddr
p13
g3
Ntp14
Rp15
(dp16
S'value'
p17
S'\x124Vx\x01\x02'
p18
sbsS'ips'
p19
(lp20
g1
(cpox.lib.addresses
IPAddr
p21
g3
Ntp22
Rp23
(dp24
g17
I33651579
sbasS'name'
p25
S'eth1'
p26
sbsS'packet'
p27
g1
(cpox.lib.packet.ethernet
ethernet
p28
g3
Ntp29
Rp30
(dp31
S'src'
p32
g15
sS'dst'
p33
g1
(g13
g3
Ntp34
Rp35
(dp36
g17
S'\x124Vx\x02\x02'
p37
sbsS'next'
p38
g1
(cpox.lib.packet.ipv4
ipv4
p39
g3
Ntp40
Rp41
(dp42
S'frag'
p43
I0
sS'csum'
p44
I61101
sS'dstip'
p45
g1
(g21
g3
Ntp46
Rp47
(dp48
g17
I33717115
sbsS'protocol'
p49
I1
sS'srcip'
p50
g23
sS'tos'
p51
I0
sS'ttl'
p52
I64
sS'iplen'
p53
I72
sg38
g1
(cpox.lib.packet.icmp
icmp
p54
g3
Ntp55
Rp56
(dp57
S'code'
p58
I0
sg44
I1591
sS'prev'
p59
g41
sS'type'
p60
I8
sg38
S'PingPingPingPingPingPingPingPingPingPingPingPing'
p61
sbsS'raw'
p62
NsS'flags'
p63
I0
sS'hl'
p64
I5
sS'v'
p65
I4
sS'id'
p66
I37389
sg59
g30
sS'parsed'
p67
I00
sbsg62
Nsg59
Nsg60
I2048
sg67
I00
sbsbag1
(g2
g3
Ntp68
Rp69
(dp70
g7
g1
(g8
g3
Ntp71
Rp72
(dp73
g12
g35
sg19
(lp74
g47
asg25
S'eth2'
p75
sbsg27
g1
(g28
g3
Ntp76
Rp77
(dp78
g32
g35
sg33
g15
sg38
g1
(g39
g3
Ntp79
Rp80
(dp81
g43
I0
sg44
I0
sg45
g23
sg49
I1
sg50
g47
sg51
I0
sg52
I64
sg53
I20
sg38
g1
(g54
g3
Ntp82
Rp83
(dp84
g58
I0
sg44
I0
sg59
g80
sg60
I0
sg38
S'PingPingPingPingPingPingPingPingPingPingPingPing'
p85
sbsg62
Nsg63
I0
sg64
I5
sg65
I4
sg66
I37390
sg59
g77
sg67
I00
sbsg62
Nsg59
Nsg60
I2048
sg67
I00
sbsbag1
(g2
g3
Ntp86
Rp87
(dp88
g7
g72
sg27
g1
(g28
g3
Ntp89
Rp90
(dp91
g32
g35
sg33
g15
sg38
g1
(g39
g3
Ntp92
Rp93
(dp94
g43
I0
sg44
I61099
sg45
g23
sg49
I1
sg50
g47
sg51
I0
sg52
I64
sg53
I72
sg38
g1
(g54
g3
Ntp95
Rp96
(dp97
g58
I0
sg44
I1591
sg59
g93
sg60
I8
sg38
S'PingPingPingPingPingPingPingPingPingPingPingPing'
p98
sbsg62
Nsg63
I0
sg64
I5
sg65
I4
sg66
I37391
sg59
g90
sg67
I00
sbsg62
Nsg59
Nsg60
I2048
sg67
I00
sbsbag1
(g2
g3
Ntp99
Rp100
(dp101
g7
g72
sg27
g1
(g28
g3
Ntp102
Rp103
(dp104
g32
g35
sg33
g15
sg38
g1
(g39
g3
Ntp105
Rp106
(dp107
g43
I0
sg44
I61097
sg45
g23
sg49
I1
sg50
g47
sg51
I0
sg52
I64
sg53
I72
sg38
g1
(g54
g3
Ntp108
Rp109
(dp110
g58
I0
sg44
I1591
sg59
g106
sg60
I8
sg38
S'PingPingPingPingPingPingPingPingPingPingPingPing'
p111
sbsg62
Nsg63
I0
sg64
I5
sg65
I4
sg66
I37393
sg59
g103
sg67
I00
sbsg62
Nsg59
Nsg60
I2048
sg67
I00
sbsbag1
(g2
g3
Ntp112
Rp113
(dp114
g7
g10
sg27
g1
(g28
g3
Ntp115
Rp116
(dp117
g32
g15
sg33
g35
sg38
g1
(g39
g3
Ntp118
Rp119
(dp120
g43
I0
sg44
I61095
sg45
g47
sg49
I1
sg50
g23
sg51
I0
sg52
I64
sg53
I72
sg38
g1
(g54
g3
Ntp121
Rp122
(dp123
g58
I0
sg44
I3639
sg59
g119
sg60
I0
sg38
S'PingPingPingPingPingPingPingPingPingPingPingPing'
p124
sbsg62
Nsg63
I0
sg64
I5
sg65
I4
sg66
I37395
sg59
g116
sg67
I00
sbsg62
Nsg59
Nsg60
I2048
sg67
I00
sbsbag1
(g2
g3
Ntp125
Rp126
(dp127
g7
g10
sg27
g1
(g28
g3
Ntp128
Rp129
(dp130
g32
g15
sg33
g15
sg38
g1
(g39
g3
Ntp131
Rp132
(dp133
g43
I0
sg44
I61350
sg45
g23
sg49
I1
sg50
g23
sg51
I0
sg52
I64
sg53
I72
sg38
g1
(g54
g3
Ntp134
Rp135
(dp136
g58
I0
sg44
I1591
sg59
g132
sg60
I8
sg38
S'PingPingPingPingPingPingPingPingPingPingPingPing'
p137
sbsg62
Nsg63
I0
sg64
I5
sg65
I4
sg66
I37396
sg59
g129
sg67
I00
sbsg62
Nsg59
Nsg60
I2048
sg67
I00
sbsbag1
(g2
g3
Ntp138
Rp139
(dp140
g7
g10
sg27
g1
(g28
g3
Ntp141
Rp142
(dp143
g32
g15
sg33
g15
sg38
g1
(g39
g3
Ntp144
Rp145
(dp146
g43
I0
sg44
I61347
sg45
g23
sg49
I1
sg50
g23
sg51
I0
sg52
I64
sg53
I72
sg38
g1
(g54
g3
Ntp147
Rp148
(dp149
g58
I0
sg44
I1591
sg59
g145
sg60
I8
sg38
S'PingPingPingPingPingPingPingPingPingPingPingPing'
p150
sbsg62
Nsg63
I0
sg64
I5
sg65
I4
sg66
I37399
sg59
g142
sg67
I00
sbsg62
Nsg59
Nsg60
I2048
sg67
I00
sbsbag1
(g2
g3
Ntp151
Rp152
(dp153
g7
g10
sg27
g1
(g28
g3
Ntp154
Rp155
(dp156
g32
g15
sg33
g15
sg38
g1
(g39
g3
Ntp157
Rp158
(dp159
g43
I0
sg44
I61345
sg45
g23
sg49
I1
sg50
g23
sg51
I0
sg52
I64
sg53
I72
sg38
g1
(g54
g3
Ntp160
Rp161
(dp162
g58
I0
sg44
I1591
sg59
g158
sg60
I8
sg38
S'PingPingPingPingPingPingPingPingPingPingPingPing'
p163
sbsg62
Nsg63
I0
sg64
I5
sg65
I4
sg66
I37401
sg59
g155
sg67
I00
sbsg62
Nsg59
Nsg60
I2048
sg67
I00
sbsbag1
(g2
g3
Ntp164
Rp165
(dp166
g7
g10
sg27
g1
(g28
g3
Ntp167
Rp168
(dp169
g32
g15
sg33
g35
sg38
g1
(g39
g3
Ntp170
Rp171
(dp172
g43
I0
sg44
I61087
sg45
g47
sg49
I1
sg50
g23
sg51
I0
sg52
I64
sg53
I72
sg38
g1
(g54
g3
Ntp173
Rp174
(dp175
g58
I0
sg44
I3639
sg59
g171
sg60
I0
sg38
S'PingPingPingPingPingPingPingPingPingPingPingPing'
p176
sbsg62
Nsg63
I0
sg64
I5
sg65
I4
sg66
I37403
sg59
g168
sg67
I00
sbsg62
Nsg59
Nsg60
I2048
sg67
I00
sbsbag1
(g2
g3
Ntp177
Rp178
(dp179
g7
g10
sg27
g1
(g28
g3
Ntp180
Rp181
(dp182
g32
g15
sg33
g15
sg38
g1
(g39
g3
Ntp183
Rp184
(dp185
g43
I0
sg44
I61342
sg45
g23
sg49
I1
sg50
g23
sg51
I0
sg52
I64
sg53
I72
sg38
g1
(g54
g3
Ntp186
Rp187
(dp188
g58
I0
sg44
I1591
sg59
g184
sg60
I8
sg38
S'PingPingPingPingPingPingPingPingPingPingPingPing'
p189
sbsg62
Nsg63
I0
sg64
I5
sg65
I4
sg66
I37404
sg59
g181
sg67
I00
sbsg62
Nsg59
Nsg60
I2048
sg67
I00
sbsbag1
(g2
g3
Ntp190
Rp191
(dp192
g7
g72
sg27
g1
(g28
g3
Ntp193
Rp194
(dp195
g32
g35
sg33
g15
sg38
g1
(g39
g3
Ntp196
Rp197
(dp198
g43
I0
sg44
I61080
sg45
g23
sg49
I1
sg50
g47
sg51
I0
sg52
I64
sg53
I72
sg38
g1
(g54
g3
Ntp199
Rp200
(dp201
g58
I0
sg44
I1591
sg59
g197
sg60
I8
sg38
S'PingPingPingPingPingPingPingPingPingPingPingPing'
p202
sbsg62
Nsg63
I0
sg64
I5
sg65
I4
sg66
I37410
sg59
g194
sg67
I00
sbsg62
Nsg59
Nsg60
I2048
sg67
I00
sbsbag1
(g2
g3
Ntp203
Rp204
(dp205
g7
g10
sg27
g1
(g28
g3
Ntp206
Rp207
(dp208
g32
g15
sg33
g35
sg38
g1
(g39
g3
Ntp209
Rp210
(dp211
g43
I0
sg44
I61079
sg45
g47
sg49
I1
sg50
g23
sg51
I0
sg52
I64
sg53
I72
sg38
g1
(g54
g3
Ntp212
Rp213
(dp214
g58
I0
sg44
I3639
sg59
g210
sg60
I0
sg38
S'PingPingPingPingPingPingPingPingPingPingPingPing'
p215
sbsg62
Nsg63
I0
sg64
I5
sg65
I4
sg66
I37411
sg59
g207
sg67
I00
sbsg62
Nsg59
Nsg60
I2048
sg67
I00
sbsbag1
(g2
g3
Ntp216
Rp217
(dp218
g7
g10
sg27
g1
(g28
g3
Ntp219
Rp220
(dp221
g32
g15
sg33
g35
sg38
g1
(g39
g3
Ntp222
Rp223
(dp224
g43
I0
sg44
I61077
sg45
g47
sg49
I1
sg50
g23
sg51
I0
sg52
I64
sg53
I72
sg38
g1
(g54
g3
Ntp225
Rp226
(dp227
g58
I0
sg44
I3639
sg59
g223
sg60
I0
sg38
S'PingPingPingPingPingPingPingPingPingPingPingPing'
p228
sbsg62
Nsg63
I0
sg64
I5
sg65
I4
sg66
I37413
sg59
g220
sg67
I00
sbsg62
Nsg59
Nsg60
I2048
sg67
I00
sbsbag1
(g2
g3
Ntp229
Rp230
(dp231
g7
g72
sg27
g1
(g28
g3
Ntp232
Rp233
(dp234
g32
g35
sg33
g15
sg38
g1
(g39
g3
Ntp235
Rp236
(dp237
g43
I0
sg44
I61076
sg45
g23
sg49
I1
sg50
g47
sg51
I0
sg52
I64
sg53
I72
sg38
g1
(g54
g3
Ntp238
Rp239
(dp240
g58
I0
sg44
I3639
sg59
g236
sg60
I0
sg38
S'PingPingPingPingPingPingPingPingPingPingPingPing'
p241
sbsg62
Nsg63
I0
sg64
I5
sg65
I4
sg66
I37414
sg59
g233
sg67
I00
sbsg62
Nsg59
Nsg60
I2048
sg67
I00
sbsbag1
(g2
g3
Ntp242
Rp243
(dp244
g7
g10
sg27
g1
(g28
g3
Ntp245
Rp246
(dp247
g32
g15
sg33
g15
sg38
g1
(g39
g3
Ntp248
Rp249
(dp250
g43
I0
sg44
I0
sg45
g23
sg49
I1
sg50
g23
sg51
I0
sg52
I64
sg53
I20
sg38
g1
(g54
g3
Ntp251
Rp252
(dp253
g58
I0
sg44
I0
sg59
g249
sg60
I0
sg38
S'PingPingPingPingPingPingPingPingPingPingPingPing'
p254
sbsg62
Nsg63
I0
sg64
I5
sg65
I4
sg66
I37420
sg59
g246
sg67
I00
sbsg62
Nsg59
Nsg60
I2048
sg67
I00
sbsbag1
(g2
g3
Ntp255
Rp256
(dp257
g7
g10
sg27
g1
(g28
g3
Ntp258
Rp259
(dp260
g32
g15
sg33
g35
sg38
g1
(g39
g3
Ntp261
Rp262
(dp263
g43
I0
sg44
I61065
sg45
g47
sg49
I1
sg50
g23
sg51
I0
sg52
I64
sg53
I72
sg38
g1
(g54
g3
Ntp264
Rp265
(dp266
g58
I0
sg44
I3639
sg59
g262
sg60
I0
sg38
S'PingPingPingPingPingPingPingPingPingPingPingPing'
p267
sbsg62
Nsg63
I0
sg64
I5
sg65
I4
sg66
I37425
sg59
g259
sg67
I00
sbsg62
Nsg59
Nsg60
I2048
sg67
I00
sbsbag1
(g2
g3
Ntp268
Rp269
(dp270
g7
g72
sg27
g1
(g28
g3
Ntp271
Rp272
(dp273
g32
g35
sg33
g15
sg38
g1
(g39
g3
Ntp274
Rp275
(dp276
g43
I0
sg44
I61064
sg45
g23
sg49
I1
sg50
g47
sg51
I0
sg52
I64
sg53
I72
sg38
g1
(g54
g3
Ntp277
Rp278
(dp279
g58
I0
sg44
I3639
sg59
g275
sg60
I0
sg38
S'PingPingPingPingPingPingPingPingPingPingPingPing'
p280
sbsg62
Nsg63
I0
sg64
I5
sg65
I4
sg66
I37426
sg59
g272
sg67
I00
sbsg62
Nsg59
Nsg60
I2048
sg67
I00
sbsbag1
(g2
g3
Ntp281
Rp282
(dp283
g7
g10
sg27
g1
(g28
g3
Ntp284
Rp285
(dp286
g32
g15
sg33
g35
sg38
g1
(g39
g3
Ntp287
Rp288
(dp289
g43
I0
sg44
I61063
sg45
g47
sg49
I1
sg50
g23
sg51
I0
sg52
I64
sg53
I72
sg38
g1
(g54
g3
Ntp290
Rp291
(dp292
g58
I0
sg44
I1591
sg59
g288
sg60
I8
sg38
S'PingPingPingPingPingPingPingPingPingPingPingPing'
p293
sbsg62
Nsg63
I0
sg64
I5
sg65
I4
sg66
I37427
sg59
g285
sg67
I00
sbsg62
Nsg59
Nsg60
I2048
sg67
I00
sbsbag1
(g2
g3
Ntp294
Rp295
(dp296
g7
g10
sg27
g1
(g28
g3
Ntp297
Rp298
(dp299
g32
g15
sg33
g35
sg38
g1
(g39
g3
Ntp300
Rp301
(dp302
g43
I0
sg44
I61062
sg45
g47
sg49
I1
sg50
g23
sg51
I0
sg52
I64
sg53
I72
sg38
g1
(g54
g3
Ntp303
Rp304
(dp305
g58
I0
sg44
I3639
sg59
g301
sg60
I0
sg38
S'PingPingPingPingPingPingPingPingPingPingPingPing'
p306
sbsg62
Nsg63
I0
sg64
I5
sg65
I4
sg66
I37428
sg59
g298
sg67
I00
sbsg62
Nsg59
Nsg60
I2048
sg67
I00
sbsbag1
(g2
g3
Ntp307
Rp308
(dp309
g7
g10
sg27
g1
(g28
g3
Ntp310
Rp311
(dp312
g32
g15
sg33
g35
sg38
g1
(g39
g3
Ntp313
Rp314
(dp315
g43
I0
sg44
I61061
sg45
g47
sg49
I1
sg50
g23
sg51
I0
sg52
I64
sg53
I72
sg38
g1
(g54
g3
Ntp316
Rp317
(dp318
g58
I0
sg44
I3639
sg59
g314
sg60
I0
sg38
S'PingPingPingPingPingPingPingPingPingPingPingPing'
p319
sbsg62
Nsg63
I0
sg64
I5
sg65
I4
sg66
I37429
sg59
g311
sg67
I00
sbsg62
Nsg59
Nsg60
I2048
sg67
I00
sbsbag1
(g2
g3
Ntp320
Rp321
(dp322
g7
g72
sg27
g1
(g28
g3
Ntp323
Rp324
(dp325
g32
g35
sg33
g15
sg38
g1
(g39
g3
Ntp326
Rp327
(dp328
g43
I0
sg44
I61055
sg45
g23
sg49
I1
sg50
g47
sg51
I0
sg52
I64
sg53
I72
sg38
g1
(g54
g3
Ntp329
Rp330
(dp331
g58
I0
sg44
I1591
sg59
g327
sg60
I8
sg38
S'PingPingPingPingPingPingPingPingPingPingPingPing'
p332
sbsg62
Nsg63
I0
sg64
I5
sg65
I4
sg66
I37435
sg59
g324
sg67
I00
sbsg62
Nsg59
Nsg60
I2048
sg67
I00
sbsbag1
(g2
g3
Ntp333
Rp334
(dp335
g7
g10
sg27
g1
(g28
g3
Ntp336
Rp337
(dp338
g32
g15
sg33
g35
sg38
g1
(g39
g3
Ntp339
Rp340
(dp341
g43
I0
sg44
I61054
sg45
g47
sg49
I1
sg50
g23
sg51
I0
sg52
I64
sg53
I72
sg38
g1
(g54
g3
Ntp342
Rp343
(dp344
g58
I0
sg44
I1591
sg59
g340
sg60
I8
sg38
S'PingPingPingPingPingPingPingPingPingPingPingPing'
p345
sbsg62
Nsg63
I0
sg64
I5
sg65
I4
sg66
I37436
sg59
g337
sg67
I00
sbsg62
Nsg59
Nsg60
I2048
sg67
I00
sbsbag1
(g2
g3
Ntp346
Rp347
(dp348
g7
g10
sg27
g1
(g28
g3
Ntp349
Rp350
(dp351
g32
g15
sg33
g35
sg38
g1
(g39
g3
Ntp352
Rp353
(dp354
g43
I0
sg44
I61053
sg45
g47
sg49
I1
sg50
g23
sg51
I0
sg52
I64
sg53
I72
sg38
g1
(g54
g3
Ntp355
Rp356
(dp357
g58
I0
sg44
I3639
sg59
g353
sg60
I0
sg38
S'PingPingPingPingPingPingPingPingPingPingPingPing'
p358
sbsg62
Nsg63
I0
sg64
I5
sg65
I4
sg66
I37437
sg59
g350
sg67
I00
sbsg62
Nsg59
Nsg60
I2048
sg67
I00
sbsbag1
(g2
g3
Ntp359
Rp360
(dp361
g7
g72
sg27
g1
(g28
g3
Ntp362
Rp363
(dp364
g32
g35
sg33
g15
sg38
g1
(g39
g3
Ntp365
Rp366
(dp367
g43
I0
sg44
I61052
sg45
g23
sg49
I1
sg50
g47
sg51
I0
sg52
I64
sg53
I72
sg38
g1
(g54
g3
Ntp368
Rp369
(dp370
g58
I0
sg44
I1591
sg59
g366
sg60
I8
sg38
S'PingPingPingPingPingPingPingPingPingPingPingPing'
p371
sbsg62
Nsg63
I0
sg64
I5
sg65
I4
sg66
I37438
sg59
g363
sg67
I00
sbsg62
Nsg59
Nsg60
I2048
sg67
I00
sbsbag1
(g2
g3
Ntp372
Rp373
(dp374
g7
g72
sg27
g1
(g28
g3
Ntp375
Rp376
(dp377
g32
g35
sg33
g15
sg38
g1
(g39
g3
Ntp378
Rp379
(dp380
g43
I0
sg44
I61050
sg45
g23
sg49
I1
sg50
g47
sg51
I0
sg52
I64
sg53
I72
sg38
g1
(g54
g3
Ntp381
Rp382
(dp383
g58
I0
sg44
I1591
sg59
g379
sg60
I8
sg38
S'PingPingPingPingPingPingPingPingPingPingPingPing'
p384
sbsg62
Nsg63
I0
sg64
I5
sg65
I4
sg66
I37440
sg59
g376
sg67
I00
sbsg62
Nsg59
Nsg60
I2048
sg67
I00
sbsbag1
(g2
g3
Ntp385
Rp386
(dp387
g7
g10
sg27
g1
(g28
g3
Ntp388
Rp389
(dp390
g32
g15
sg33
g35
sg38
g1
(g39
g3
Ntp391
Rp392
(dp393
g43
I0
sg44
I61044
sg45
g47
sg49
I1
sg50
g23
sg51
I0
sg52
I64
sg53
I72
sg38
g1
(g54
g3
Ntp394
Rp395
(dp396
g58
I0
sg44
I3639
sg59
g392
sg60
I0
sg38
S'PingPingPingPingPingPingPingPingPingPingPingPing'
p397
sbsg62
Nsg63
I0
sg64
I5
sg65
I4
sg66
I37446
sg59
g389
sg67
I00
sbsg62
Nsg59
Nsg60
I2048
sg67
I00
sbsbag1
(g2
g3
Ntp398
Rp399
(dp400
g7
g10
sg27
g1
(g28
g3
Ntp401
Rp402
(dp403
g32
g15
sg33
g35
sg38
g1
(g39
g3
Ntp404
Rp405
(dp406
g43
I0
sg44
I61042
sg45
g47
sg49
I1
sg50
g23
sg51
I0
sg52
I64
sg53
I72
sg38
g1
(g54
g3
Ntp407
Rp408
(dp409
g58
I0
sg44
I3639
sg59
g405
sg60
I0
sg38
S'PingPingPingPingPingPingPingPingPingPingPingPing'
p410
sbsg62
Nsg63
I0
sg64
I5
sg65
I4
sg66
I37448
sg59
g402
sg67
I00
sbsg62
Nsg59
Nsg60
I2048
sg67
I00
sbsbag1
(g2
g3
Ntp411
Rp412
(dp413
g7
g10
sg27
g1
(g28
g3
Ntp414
Rp415
(dp416
g32
g15
sg33
g35
sg38
g1
(g39
g3
Ntp417
Rp418
(dp419
g43
I0
sg44
I61032
sg45
g47
sg49
I1
sg50
g23
sg51
I0
sg52
I64
sg53
I72
sg38
g1
(g54
g3
Ntp420
Rp421
(dp422
g58
I0
sg44
I1591
sg59
g418
sg60
I8
sg38
S'PingPingPingPingPingPingPingPingPingPingPingPing'
p423
sbsg62
Nsg63
I0
sg64
I5
sg65
I4
sg66
I37458
sg59
g415
sg67
I00
sbsg62
Nsg59
Nsg60
I2048
sg67
I00
sbsba.