(lp0
ccopy_reg
_reconstructor
p1
(csts.trace_generator
DataplaneEvent
p2
c__builtin__
object
p3
Ntp4
Rp5
(dp6
S'interface'
p7
g1
(csts.debugger_entities
HostInterface
p8
g3
Ntp9
Rp10
(dp11
S'ips'
p12
(lp13
g1
(cpox.lib.addresses
IPAddr
p14
g3
Ntp15
Rp16
(dp17
S'_value'
p18
I33651579
sbasS'mac'
p19
g1
(cpox.lib.addresses
EthAddr
p20
g3
Ntp21
Rp22
(dp23
g18
S'\x124Vx\x01\x02'
p24
sbsS'name'
p25
S'eth1'
p26
sbsS'packet'
p27
g1
(cpox.lib.packet.ethernet
ethernet
p28
g3
Ntp29
Rp30
(dp31
S'src'
p32
g22
sS'dst'
p33
g1
(g20
g3
Ntp34
Rp35
(dp36
g18
S'\x124Vx\x02\x02'
p37
sbsS'next'
p38
g1
(cpox.lib.packet.ipv4
ipv4
p39
g3
Ntp40
Rp41
(dp42
S'frag'
p43
I0
sS'csum'
p44
I0
sS'dstip'
p45
g1
(g14
g3
Ntp46
Rp47
(dp48
g18
I33717115
sbsS'protocol'
p49
I1
sS'srcip'
p50
g16
sS'tos'
p51
I0
sS'ttl'
p52
I64
sS'iplen'
p53
I20
sg38
g1
(cpox.lib.packet.icmp
icmp
p54
g3
Ntp55
Rp56
(dp57
S'code'
p58
I0
sg44
I0
sS'prev'
p59
g41
sS'type'
p60
I8
sg38
S'ping'
p61
sbsS'raw'
p62
NsS'flags'
p63
I0
sS'hl'
p64
I5
sS'v'
p65
I4
sS'id'
p66
I31920
sg59
g30
sS'parsed'
p67
I00
sbsg62
Nsg59
Nsg60
I2048
sg67
I00
sbsbag1
(g2
g3
Ntp68
Rp69
(dp70
g7
g1
(g8
g3
Ntp71
Rp72
(dp73
g12
(lp74
g47
asg19
g35
sg25
S'eth2'
p75
sbsg27
g1
(g28
g3
Ntp76
Rp77
(dp78
g32
g35
sg33
g22
sg38
g1
(g39
g3
Ntp79
Rp80
(dp81
g43
I0
sg44
I0
sg45
g16
sg49
I1
sg50
g47
sg51
I0
sg52
I64
sg53
I20
sg38
g1
(g54
g3
Ntp82
Rp83
(dp84
g58
I0
sg44
I0
sg59
g80
sg60
I8
sg38
g61
sbsg62
Nsg63
I0
sg64
I5
sg65
I4
sg66
I31921
sg59
g77
sg67
I00
sbsg62
Nsg59
Nsg60
I2048
sg67
I00
sbsbag5
ag69
ag5
ag69
ag5
ag69
ag5
ag69
ag5
ag69
ag5
ag69
ag5
ag69
ag5
ag69
ag5
ag69
ag5
ag69
ag5
ag69
ag5
ag69
ag5
ag69
ag5
ag69
ag5
ag69
ag5
ag69
ag5
ag69
ag5
ag69
ag5
ag69
ag5
ag69
ag5
ag69
ag5
ag69
ag5
ag69
ag5
ag69
ag5
ag69
ag5
ag69
ag5
ag69
ag5
ag69
ag5
ag69
ag5
ag69
ag5
ag69
ag5
ag69
ag5
ag69
ag5
ag69
ag5
ag69
ag5
ag69
ag5
ag69
ag5
ag69
ag5
ag69
a.