(lp0
ccopy_reg
_reconstructor
p1
(csts.trace_generator
DataplaneEvent
p2
c__builtin__
object
p3
Ntp4
Rp5
(dp6
S'interface'
p7
g1
(csts.debugger_entities
HostInterface
p8
g3
Ntp9
Rp10
(dp11
S'ips'
p12
(lp13
g1
(cpox.lib.addresses
IPAddr
p14
g3
Ntp15
Rp16
(dp17
S'_value'
p18
I33651579
sbasS'mac'
p19
g1
(cpox.lib.addresses
EthAddr
p20
g3
Ntp21
Rp22
(dp23
g18
S'\x124Vx\x01\x02'
p24
sbsS'name'
p25
S'eth1'
p26
sbsS'hostname'
p27
S'host:1'
p28
sS'packet'
p29
g1
(cpox.lib.packet.ethernet
ethernet
p30
g3
Ntp31
Rp32
(dp33
S'src'
p34
g22
sS'dst'
p35
g1
(g20
g3
Ntp36
Rp37
(dp38
g18
S'\x124Vx\x02\x02'
p39
sbsS'next'
p40
g1
(cpox.lib.packet.ipv4
ipv4
p41
g3
Ntp42
Rp43
(dp44
S'frag'
p45
I0
sS'csum'
p46
I0
sS'dstip'
p47
g1
(g14
g3
Ntp48
Rp49
(dp50
g18
I33717115
sbsS'protocol'
p51
I1
sS'srcip'
p52
g16
sS'tos'
p53
I0
sS'ttl'
p54
I64
sS'iplen'
p55
I20
sg40
g1
(cpox.lib.packet.icmp
icmp
p56
g3
Ntp57
Rp58
(dp59
S'code'
p60
I0
sg46
I0
sS'prev'
p61
g43
sS'type'
p62
I8
sg40
S'ping'
p63
sbsS'raw'
p64
NsS'flags'
p65
I0
sS'hl'
p66
I5
sS'v'
p67
I4
sS'id'
p68
I7178
sg61
g32
sS'parsed'
p69
I00
sbsg64
Nsg61
Nsg62
I2048
sg69
I00
sbsbag1
(g2
g3
Ntp70
Rp71
(dp72
g7
g1
(g8
g3
Ntp73
Rp74
(dp75
g12
(lp76
g49
asg19
g37
sg25
S'eth2'
p77
sbsg27
S'host:2'
p78
sg29
g1
(g30
g3
Ntp79
Rp80
(dp81
g34
g37
sg35
g22
sg40
g1
(g41
g3
Ntp82
Rp83
(dp84
g45
I0
sg46
I0
sg47
g16
sg51
I1
sg52
g49
sg53
I0
sg54
I64
sg55
I20
sg40
g1
(g56
g3
Ntp85
Rp86
(dp87
g60
I0
sg46
I0
sg61
g83
sg62
I8
sg40
g63
sbsg64
Nsg65
I0
sg66
I5
sg67
I4
sg68
I7179
sg61
g80
sg69
I00
sbsg64
Nsg61
Nsg62
I2048
sg69
I00
sbsbag5
ag71
ag5
ag71
ag5
ag71
ag5
ag71
ag5
ag71
ag5
ag71
ag5
ag71
ag5
ag71
ag5
ag71
ag5
ag71
ag5
ag71
ag5
ag71
ag5
ag71
ag5
ag71
ag5
ag71
ag5
ag71
ag5
ag71
ag5
ag71
ag5
ag71
ag5
ag71
ag5
ag71
ag5
ag71
ag5
ag71
ag5
ag71
ag5
ag71
ag5
ag71
ag5
ag71
ag5
ag71
ag5
ag71
ag5
ag71
ag5
ag71
ag5
ag71
ag5
ag71
ag5
ag71
ag5
ag71
ag5
ag71
ag5
ag71
ag5
ag71
ag5
ag71
a.