(lp0
ccopy_reg
_reconstructor
p1
(ctraces.trace
DataplaneEvent
p2
c__builtin__
object
p3
Ntp4
Rp5
(dp6
S'packet'
p7
g1
(cpox.lib.packet.ethernet
ethernet
p8
g3
Ntp9
Rp10
(dp11
S'type'
p12
I2048
sS'src'
p13
g1
(cpox.lib.addresses
EthAddr
p14
g3
Ntp15
Rp16
(dp17
S'value'
p18
S'\x124Vx\x01\x02'
p19
sbsS'dst'
p20
g1
(g14
g3
Ntp21
Rp22
(dp23
g18
S'\x124Vx\x02\x02'
p24
sbsS'raw'
p25
NsS'parsed'
p26
I00
sS'prev'
p27
NsS'next'
p28
g1
(cpox.lib.packet.ipv4
ipv4
p29
g3
Ntp30
Rp31
(dp32
S'dstip'
p33
g1
(cpox.lib.addresses
IPAddr
p34
g3
Ntp35
Rp36
(dp37
g18
I33717115
sbsS'srcip'
p38
g1
(g34
g3
Ntp39
Rp40
(dp41
g18
I33717115
sbsS'csum'
p42
I0
sS'protocol'
p43
I1
sS'ttl'
p44
I64
sS'frag'
p45
I0
sS'flags'
p46
I0
sS'id'
p47
I53710
sS'iplen'
p48
I20
sS'tos'
p49
I0
sS'hl'
p50
I5
sS'v'
p51
I4
sg25
Nsg26
I00
sg27
g10
sg28
g1
(cpox.lib.packet.icmp
icmp
p52
g3
Ntp53
Rp54
(dp55
g28
S'ping'
p56
sg42
I0
sS'code'
p57
I0
sg12
I8
sg27
g31
sbsbsbsS'interface'
p58
g1
(csts.entities
HostInterface
p59
g3
Ntp60
Rp61
(dp62
S'name'
p63
S'eth1'
p64
sS'ips'
p65
(lp66
g40
asS'mac'
p67
g16
sbsbag1
(g2
g3
Ntp68
Rp69
(dp70
g7
g1
(g8
g3
Ntp71
Rp72
(dp73
g12
I2048
sg13
g22
sg20
g16
sg25
Nsg26
I00
sg27
Nsg28
g1
(g29
g3
Ntp74
Rp75
(dp76
g33
g40
sg38
g36
sg42
I0
sg43
I1
sg44
I64
sg45
I0
sg46
I0
sg47
I53711
sg48
I20
sg49
I0
sg50
I5
sg51
I4
sg25
Nsg26
I00
sg27
g72
sg28
g1
(g52
g3
Ntp77
Rp78
(dp79
g28
g56
sg42
I0
sg57
I0
sg12
I8
sg27
g75
sbsbsbsg58
g1
(g59
g3
Ntp80
Rp81
(dp82
g63
S'eth2'
p83
sg65
(lp84
g36
asg67
g22
sbsbag5
ag69
ag5
ag69
ag5
ag69
ag5
ag69
ag5
ag69
ag5
ag69
ag5
ag69
ag5
ag69
ag5
ag69
ag5
ag69
ag5
ag69
ag5
ag69
ag5
ag69
ag5
ag69
ag5
ag69
ag5
ag69
ag5
ag69
ag5
ag69
ag5
ag69
ag5
ag69
ag5
ag69
ag5
ag69
ag5
ag69
ag5
ag69
ag5
ag69
ag5
ag69
ag5
ag69
ag5
ag69
ag5
ag69
ag5
ag69
ag5
ag69
ag5
ag69
ag5
ag69
ag5
ag69
ag5
ag69
ag5
ag69
ag5
ag69
ag5
ag69
ag5
ag69
a.