(lp0
ccopy_reg
_reconstructor
p1
(cdebugger.trace_generator
DataplaneEvent
p2
c__builtin__
object
p3
Ntp4
Rp5
(dp6
S'switch_dpid'
p7
I1
sS'packet'
p8
g1
(cpox.lib.packet.ethernet
ethernet
p9
g3
Ntp10
Rp11
(dp12
S'src'
p13
g1
(cpox.lib.addresses
EthAddr
p14
g3
Ntp15
Rp16
(dp17
S'_value'
p18
S'\xaa\x00\x00\x00\x00\x00'
p19
sbsS'dst'
p20
g1
(g14
g3
Ntp21
Rp22
(dp23
g18
S'\x00\x00\x00\x00\x01\x01'
p24
sbsS'next'
p25
g1
(cpox.lib.packet.ipv4
ipv4
p26
g3
Ntp27
Rp28
(dp29
S'frag'
p30
I0
sS'csum'
p31
I0
sS'dstip'
p32
g1
(cpox.lib.addresses
IPAddr
p33
g3
Ntp34
Rp35
(dp36
g18
I187
sbsS'protocol'
p37
I1
sS'srcip'
p38
g1
(g33
g3
Ntp39
Rp40
(dp41
g18
I170
sbsS'tos'
p42
I0
sS'ttl'
p43
I64
sS'iplen'
p44
I20
sg25
g1
(cpox.lib.packet.icmp
icmp
p45
g3
Ntp46
Rp47
(dp48
S'code'
p49
I0
sg31
I0
sS'prev'
p50
g28
sS'type'
p51
I8
sg25
S'ping'
p52
sbsS'raw'
p53
NsS'flags'
p54
I0
sS'hl'
p55
I5
sS'v'
p56
I4
sS'id'
p57
I53571
sg50
g11
sS'parsed'
p58
I00
sbsg53
Nsg50
Nsg51
I2048
sg58
I00
sbsS'port_no'
p59
I1
sbag1
(g2
g3
Ntp60
Rp61
(dp62
g7
I2
sg8
g1
(g9
g3
Ntp63
Rp64
(dp65
g13
g1
(g14
g3
Ntp66
Rp67
(dp68
g18
S'\xbb\x00\x00\x00\x00\x00'
p69
sbsg20
g1
(g14
g3
Ntp70
Rp71
(dp72
g18
S'\x00\x00\x00\x00\x02\x01'
p73
sbsg25
g1
(g26
g3
Ntp74
Rp75
(dp76
g30
I0
sg31
I0
sg32
g40
sg37
I1
sg38
g35
sg42
I0
sg43
I64
sg44
I20
sg25
g1
(g45
g3
Ntp77
Rp78
(dp79
g49
I0
sg31
I0
sg50
g75
sg51
I0
sg25
S'pong'
p80
sbsg53
Nsg54
I0
sg55
I5
sg56
I4
sg57
I53572
sg50
g64
sg58
I00
sbsg53
Nsg50
Nsg51
I2048
sg58
I00
sbsg59
I1
sbag1
(g2
g3
Ntp81
Rp82
(dp83
g7
I1
sg8
g11
sg59
I1
sbag1
(g2
g3
Ntp84
Rp85
(dp86
g7
I2
sg8
g64
sg59
I1
sbag1
(g2
g3
Ntp87
Rp88
(dp89
g7
I1
sg8
g11
sg59
I1
sbag1
(g2
g3
Ntp90
Rp91
(dp92
g7
I2
sg8
g64
sg59
I1
sbag1
(g2
g3
Ntp93
Rp94
(dp95
g7
I1
sg8
g11
sg59
I1
sbag1
(g2
g3
Ntp96
Rp97
(dp98
g7
I2
sg8
g64
sg59
I1
sbag1
(g2
g3
Ntp99
Rp100
(dp101
g7
I1
sg8
g11
sg59
I1
sbag1
(g2
g3
Ntp102
Rp103
(dp104
g7
I2
sg8
g64
sg59
I1
sbag1
(g2
g3
Ntp105
Rp106
(dp107
g7
I1
sg8
g11
sg59
I1
sbag1
(g2
g3
Ntp108
Rp109
(dp110
g7
I2
sg8
g64
sg59
I1
sbag1
(g2
g3
Ntp111
Rp112
(dp113
g7
I1
sg8
g11
sg59
I1
sbag1
(g2
g3
Ntp114
Rp115
(dp116
g7
I2
sg8
g64
sg59
I1
sbag1
(g2
g3
Ntp117
Rp118
(dp119
g7
I1
sg8
g11
sg59
I1
sbag1
(g2
g3
Ntp120
Rp121
(dp122
g7
I2
sg8
g64
sg59
I1
sbag1
(g2
g3
Ntp123
Rp124
(dp125
g7
I1
sg8
g11
sg59
I1
sbag1
(g2
g3
Ntp126
Rp127
(dp128
g7
I2
sg8
g64
sg59
I1
sbag1
(g2
g3
Ntp129
Rp130
(dp131
g7
I1
sg8
g11
sg59
I1
sbag1
(g2
g3
Ntp132
Rp133
(dp134
g7
I2
sg8
g64
sg59
I1
sbag1
(g2
g3
Ntp135
Rp136
(dp137
g7
I1
sg8
g11
sg59
I1
sbag1
(g2
g3
Ntp138
Rp139
(dp140
g7
I2
sg8
g64
sg59
I1
sbag1
(g2
g3
Ntp141
Rp142
(dp143
g7
I1
sg8
g11
sg59
I1
sbag1
(g2
g3
Ntp144
Rp145
(dp146
g7
I2
sg8
g64
sg59
I1
sbag1
(g2
g3
Ntp147
Rp148
(dp149
g7
I1
sg8
g11
sg59
I1
sbag1
(g2
g3
Ntp150
Rp151
(dp152
g7
I2
sg8
g64
sg59
I1
sbag1
(g2
g3
Ntp153
Rp154
(dp155
g7
I1
sg8
g11
sg59
I1
sbag1
(g2
g3
Ntp156
Rp157
(dp158
g7
I2
sg8
g64
sg59
I1
sbag1
(g2
g3
Ntp159
Rp160
(dp161
g7
I1
sg8
g11
sg59
I1
sbag1
(g2
g3
Ntp162
Rp163
(dp164
g7
I2
sg8
g64
sg59
I1
sbag1
(g2
g3
Ntp165
Rp166
(dp167
g7
I1
sg8
g11
sg59
I1
sbag1
(g2
g3
Ntp168
Rp169
(dp170
g7
I2
sg8
g64
sg59
I1
sbag1
(g2
g3
Ntp171
Rp172
(dp173
g7
I1
sg8
g11
sg59
I1
sbag1
(g2
g3
Ntp174
Rp175
(dp176
g7
I2
sg8
g64
sg59
I1
sbag1
(g2
g3
Ntp177
Rp178
(dp179
g7
I1
sg8
g11
sg59
I1
sbag1
(g2
g3
Ntp180
Rp181
(dp182
g7
I2
sg8
g64
sg59
I1
sbag1
(g2
g3
Ntp183
Rp184
(dp185
g7
I1
sg8
g11
sg59
I1
sbag1
(g2
g3
Ntp186
Rp187
(dp188
g7
I2
sg8
g64
sg59
I1
sbag1
(g2
g3
Ntp189
Rp190
(dp191
g7
I1
sg8
g11
sg59
I1
sbag1
(g2
g3
Ntp192
Rp193
(dp194
g7
I2
sg8
g64
sg59
I1
sbag1
(g2
g3
Ntp195
Rp196
(dp197
g7
I1
sg8
g11
sg59
I1
sbag1
(g2
g3
Ntp198
Rp199
(dp200
g7
I2
sg8
g64
sg59
I1
sbag1
(g2
g3
Ntp201
Rp202
(dp203
g7
I1
sg8
g11
sg59
I1
sbag1
(g2
g3
Ntp204
Rp205
(dp206
g7
I2
sg8
g64
sg59
I1
sbag1
(g2
g3
Ntp207
Rp208
(dp209
g7
I1
sg8
g11
sg59
I1
sbag1
(g2
g3
Ntp210
Rp211
(dp212
g7
I2
sg8
g64
sg59
I1
sbag1
(g2
g3
Ntp213
Rp214
(dp215
g7
I1
sg8
g11
sg59
I1
sbag1
(g2
g3
Ntp216
Rp217
(dp218
g7
I2
sg8
g64
sg59
I1
sbag1
(g2
g3
Ntp219
Rp220
(dp221
g7
I1
sg8
g11
sg59
I1
sbag1
(g2
g3
Ntp222
Rp223
(dp224
g7
I2
sg8
g64
sg59
I1
sbag1
(g2
g3
Ntp225
Rp226
(dp227
g7
I1
sg8
g11
sg59
I1
sbag1
(g2
g3
Ntp228
Rp229
(dp230
g7
I2
sg8
g64
sg59
I1
sbag1
(g2
g3
Ntp231
Rp232
(dp233
g7
I1
sg8
g11
sg59
I1
sbag1
(g2
g3
Ntp234
Rp235
(dp236
g7
I2
sg8
g64
sg59
I1
sbag1
(g2
g3
Ntp237
Rp238
(dp239
g7
I1
sg8
g11
sg59
I1
sbag1
(g2
g3
Ntp240
Rp241
(dp242
g7
I2
sg8
g64
sg59
I1
sbag1
(g2
g3
Ntp243
Rp244
(dp245
g7
I1
sg8
g11
sg59
I1
sbag1
(g2
g3
Ntp246
Rp247
(dp248
g7
I2
sg8
g64
sg59
I1
sbag1
(g2
g3
Ntp249
Rp250
(dp251
g7
I1
sg8
g11
sg59
I1
sbag1
(g2
g3
Ntp252
Rp253
(dp254
g7
I2
sg8
g64
sg59
I1
sbag1
(g2
g3
Ntp255
Rp256
(dp257
g7
I1
sg8
g11
sg59
I1
sbag1
(g2
g3
Ntp258
Rp259
(dp260
g7
I2
sg8
g64
sg59
I1
sbag1
(g2
g3
Ntp261
Rp262
(dp263
g7
I1
sg8
g11
sg59
I1
sbag1
(g2
g3
Ntp264
Rp265
(dp266
g7
I2
sg8
g64
sg59
I1
sbag1
(g2
g3
Ntp267
Rp268
(dp269
g7
I1
sg8
g11
sg59
I1
sbag1
(g2
g3
Ntp270
Rp271
(dp272
g7
I2
sg8
g64
sg59
I1
sbag1
(g2
g3
Ntp273
Rp274
(dp275
g7
I1
sg8
g11
sg59
I1
sbag1
(g2
g3
Ntp276
Rp277
(dp278
g7
I2
sg8
g64
sg59
I1
sbag1
(g2
g3
Ntp279
Rp280
(dp281
g7
I1
sg8
g11
sg59
I1
sbag1
(g2
g3
Ntp282
Rp283
(dp284
g7
I2
sg8
g64
sg59
I1
sbag1
(g2
g3
Ntp285
Rp286
(dp287
g7
I1
sg8
g11
sg59
I1
sbag1
(g2
g3
Ntp288
Rp289
(dp290
g7
I2
sg8
g64
sg59
I1
sbag1
(g2
g3
Ntp291
Rp292
(dp293
g7
I1
sg8
g11
sg59
I1
sbag1
(g2
g3
Ntp294
Rp295
(dp296
g7
I2
sg8
g64
sg59
I1
sbag1
(g2
g3
Ntp297
Rp298
(dp299
g7
I1
sg8
g11
sg59
I1
sbag1
(g2
g3
Ntp300
Rp301
(dp302
g7
I2
sg8
g64
sg59
I1
sbag1
(g2
g3
Ntp303
Rp304
(dp305
g7
I1
sg8
g11
sg59
I1
sbag1
(g2
g3
Ntp306
Rp307
(dp308
g7
I2
sg8
g64
sg59
I1
sbag1
(g2
g3
Ntp309
Rp310
(dp311
g7
I1
sg8
g11
sg59
I1
sbag1
(g2
g3
Ntp312
Rp313
(dp314
g7
I2
sg8
g64
sg59
I1
sba.